target datalayout = "e-m:e-p270:32:32-p271:32:32-p272:64:64-i64:64-i128:128-f80:128-n8:16:32:64-S128"
target triple = "x86_64-pc-linux-gnu"

%struct.Gia_Obj_t_ = type <{ i64, i32 }>
%struct.Gia_Man_t_ = type { ptr, ptr, i32, i32, i32, i32, ptr, ptr, i32, i32, i32, ptr, ptr, %struct.Vec_Int_t_, %struct.Vec_Int_t_, i32, i32, i32, %struct.Vec_Int_t_, ptr, ptr, ptr, i32, i32, i32, i32, ptr, ptr, ptr, ptr, ptr, i32, i32, ptr, i32, ptr, ptr, ptr, ptr, ptr, ptr, ptr, ptr, ptr, ptr, ptr, ptr, ptr, ptr, ptr, ptr, ptr, ptr, %struct.Vec_Int_t_, %struct.Vec_Int_t_, ptr, ptr, ptr, ptr, ptr, ptr, ptr, ptr, ptr, ptr, ptr, ptr, ptr, ptr, ptr, ptr, ptr, ptr, ptr, ptr, ptr, i32, float, float, ptr, ptr, i32, ptr, ptr, ptr, ptr, ptr, ptr, ptr, ptr, ptr, ptr, ptr, ptr, ptr, ptr, ptr, i64, i64, ptr, ptr, i32, i32, i32, i32, i32, i32, i32, i32, i32, i32, i32, i32, ptr, ptr, ptr, ptr, ptr, ptr, ptr, ptr, i32, i32, i32, ptr, i32, i32, ptr, ptr, ptr, ptr, ptr, ptr, i32, i32, ptr, %struct.Vec_Int_t_, %struct.Vec_Int_t_, %struct.Vec_Int_t_, ptr, ptr, ptr }
%struct.Vec_Int_t_ = type { i32, i32, ptr }
%struct.Gia_Rpr_t_ = type { i32 }

; Function Attrs: nounwind uwtable
define internal i32 @Gia_ObjRepr(ptr noundef %0, i32 noundef %1) #0 {
  %3 = alloca ptr, align 8
  %4 = alloca i32, align 4
  store ptr %0, ptr %3, align 8
  store i32 %1, ptr %4, align 4
  %5 = load ptr, ptr %3, align 8
  %6 = getelementptr inbounds %struct.Gia_Man_t_, ptr %5, i32 0, i32 27
  %7 = load ptr, ptr %6, align 8
  %8 = load i32, ptr %4, align 4
  %9 = sext i32 %8 to i64
  %10 = getelementptr inbounds %struct.Gia_Rpr_t_, ptr %7, i64 %9
  %11 = load i32, ptr %10, align 4
  %12 = and i32 %11, 268435455
  ret i32 %12
}

; Function Attrs: nounwind uwtable
define internal ptr @Gia_ManObj(ptr noundef %0, i32 noundef %1) #0 {
  %3 = alloca ptr, align 8
  %4 = alloca i32, align 4
  store ptr %0, ptr %3, align 8
  store i32 %1, ptr %4, align 4
  %5 = load ptr, ptr %3, align 8
  %6 = getelementptr inbounds %struct.Gia_Man_t_, ptr %5, i32 0, i32 6
  %7 = load ptr, ptr %6, align 8
  %8 = load i32, ptr %4, align 4
  %9 = sext i32 %8 to i64
  %10 = getelementptr inbounds %struct.Gia_Obj_t_, ptr %7, i64 %9
  ret ptr %10
}

; Function Attrs: nounwind uwtable
define i32 @Gia_TransferMappedClasses(ptr noundef %0, ptr noundef %1, ptr noundef %2) #0 {
  %4 = alloca i32, align 4
  %5 = alloca ptr, align 8
  %6 = alloca ptr, align 8
  %7 = alloca ptr, align 8
  %8 = alloca ptr, align 8
  %9 = alloca i32, align 4
  %10 = alloca i32, align 4
  %11 = alloca i32, align 4
  %12 = alloca i32, align 4
  store ptr %0, ptr %5, align 8
  store ptr %1, ptr %6, align 8
  store ptr %2, ptr %7, align 8
  %13 = load ptr, ptr %5, align 8
  %14 = getelementptr inbounds %struct.Gia_Man_t_, ptr %13, i32 0, i32 27
  %15 = load ptr, ptr %14, align 8
  %16 = icmp eq ptr %15, null
  br i1 %16, label %17, label %18

17:                                               ; preds = %3
  store i32 0, ptr %4, align 4
  br label %79

18:                                               ; preds = %3
  store i32 0, ptr %12, align 4
  store i32 0, ptr %9, align 4
  br label %19

19:                                               ; preds = %74, %18
  %20 = load i32, ptr %9, align 4
  %21 = load ptr, ptr %5, align 8
  %22 = getelementptr inbounds %struct.Gia_Man_t_, ptr %21, i32 0, i32 4
  %23 = load i32, ptr %22, align 8
  %24 = icmp slt i32 %20, %23
  br i1 %24, label %25, label %30

25:                                               ; preds = %19
  %26 = load ptr, ptr %5, align 8
  %27 = load i32, ptr %9, align 4
  %28 = call ptr @Gia_ManObj(ptr noundef %26, i32 noundef %27)
  store ptr %28, ptr %8, align 8
  %29 = icmp ne ptr %28, null
  br label %30

30:                                               ; preds = %25, %19
  %31 = phi i1 [ false, %19 ], [ %29, %25 ]
  br i1 %31, label %32, label %77

32:                                               ; preds = %30
  %33 = load ptr, ptr %5, align 8
  %34 = load i32, ptr %9, align 4
  %35 = call i32 @Gia_ObjRepr(ptr noundef %33, i32 noundef %34)
  %36 = icmp eq i32 %35, 268435455
  br i1 %36, label %37, label %38

37:                                               ; preds = %32
  br label %74

38:                                               ; preds = %32
  %39 = load ptr, ptr %6, align 8
  %40 = load i32, ptr %9, align 4
  %41 = sext i32 %40 to i64
  %42 = getelementptr inbounds i32, ptr %39, i64 %41
  %43 = load i32, ptr %42, align 4
  store i32 %43, ptr %10, align 4
  %44 = load ptr, ptr %6, align 8
  %45 = load ptr, ptr %5, align 8
  %46 = load i32, ptr %9, align 4
  %47 = call i32 @Gia_ObjRepr(ptr noundef %45, i32 noundef %46)
  %48 = sext i32 %47 to i64
  %49 = getelementptr inbounds i32, ptr %44, i64 %48
  %50 = load i32, ptr %49, align 4
  store i32 %50, ptr %11, align 4
  %51 = load i32, ptr %10, align 4
  %52 = load i32, ptr %11, align 4
  %53 = icmp eq i32 %51, %52
  br i1 %53, label %54, label %55

54:                                               ; preds = %38
  br label %74

55:                                               ; preds = %38
  %56 = load i32, ptr %10, align 4
  %57 = load i32, ptr %11, align 4
  %58 = icmp slt i32 %56, %57
  br i1 %58, label %59, label %65

59:                                               ; preds = %55
  %60 = load i32, ptr %10, align 4
  %61 = load ptr, ptr %7, align 8
  %62 = load i32, ptr %11, align 4
  %63 = sext i32 %62 to i64
  %64 = getelementptr inbounds i32, ptr %61, i64 %63
  store i32 %60, ptr %64, align 4
  br label %71

65:                                               ; preds = %55
  %66 = load i32, ptr %11, align 4
  %67 = load ptr, ptr %7, align 8
  %68 = load i32, ptr %10, align 4
  %69 = sext i32 %68 to i64
  %70 = getelementptr inbounds i32, ptr %67, i64 %69
  store i32 %66, ptr %70, align 4
  br label %71

71:                                               ; preds = %65, %59
  %72 = load i32, ptr %12, align 4
  %73 = add nsw i32 %72, 1
  store i32 %73, ptr %12, align 4
  br label %74

74:                                               ; preds = %71, %54, %37
  %75 = load i32, ptr %9, align 4
  %76 = add nsw i32 %75, 1
  store i32 %76, ptr %9, align 4
  br label %19, !llvm.loop !15

77:                                               ; preds = %30
  %78 = load i32, ptr %12, align 4
  store i32 %78, ptr %4, align 4
  br label %79

79:                                               ; preds = %77, %17
  %80 = load i32, ptr %4, align 4
  ret i32 %80
}