; Function Attrs: nofree norecurse nosync nounwind memory(read, argmem: readwrite, inaccessiblemem: none) uwtable
define i32 @Gia_TransferMappedClasses(ptr noundef readonly captures(none) %0, ptr noundef readonly captures(none) %1, ptr noundef writeonly captures(none) %2) local_unnamed_addr #6 {
  %4 = getelementptr inbounds nuw i8, ptr %0, i64 192
  %5 = load ptr, ptr %4, align 8
  %6 = icmp eq ptr %5, null
  br i1 %6, label %.critedge, label %.preheader

.preheader:                                       ; preds = %3
  %7 = getelementptr i8, ptr %0, i64 32
  %8 = getelementptr inbounds nuw i8, ptr %0, i64 24
  %9 = load i32, ptr %8, align 8
  %10 = icmp sgt i32 %9, 0
  br i1 %10, label %.lr.ph, label %.critedge

.lr.ph:                                           ; preds = %.preheader, %28
  %11 = phi i32 [ %29, %28 ], [ %9, %.preheader ]
  %indvars.iv = phi i64 [ %indvars.iv.next, %28 ], [ 0, %.preheader ]
  %.032 = phi i32 [ %.1, %28 ], [ 0, %.preheader ]
  %.val = load ptr, ptr %7, align 8
  %.not = icmp eq ptr %.val, null
  br i1 %.not, label %.critedge, label %12

12:                                               ; preds = %.lr.ph
  %.val29 = load ptr, ptr %4, align 8
  %13 = getelementptr inbounds nuw %struct.Gia_Rpr_t_, ptr %.val29, i64 %indvars.iv
  %14 = load i32, ptr %13, align 4
  %15 = and i32 %14, 268435455
  %16 = icmp eq i32 %15, 268435455
  br i1 %16, label %28, label %17

17:                                               ; preds = %12
  %18 = getelementptr inbounds nuw i32, ptr %1, i64 %indvars.iv
  %19 = load i32, ptr %18, align 4
  %20 = zext nneg i32 %15 to i64
  %21 = getelementptr inbounds nuw i32, ptr %1, i64 %20
  %22 = load i32, ptr %21, align 4
  %23 = icmp eq i32 %19, %22
  br i1 %23, label %28, label %24

24:                                               ; preds = %17
  %. = tail call i32 @llvm.smax.i32(i32 %19, i32 %22)
  %.39 = tail call i32 @llvm.smin.i32(i32 %19, i32 %22)
  %25 = sext i32 %. to i64
  %26 = getelementptr inbounds i32, ptr %2, i64 %25
  store i32 %.39, ptr %26, align 4
  %27 = add nsw i32 %.032, 1
  %.pre = load i32, ptr %8, align 8
  br label %28

28:                                               ; preds = %17, %12, %24
  %29 = phi i32 [ %11, %12 ], [ %11, %17 ], [ %.pre, %24 ]
  %.1 = phi i32 [ %.032, %12 ], [ %.032, %17 ], [ %27, %24 ]
  %indvars.iv.next = add nuw nsw i64 %indvars.iv, 1
  %30 = sext i32 %29 to i64
  %31 = icmp slt i64 %indvars.iv.next, %30
  br i1 %31, label %.lr.ph, label %.critedge, !llvm.loop !15

.critedge:                                        ; preds = %28, %.lr.ph, %.preheader, %3
  %.025 = phi i32 [ 0, %3 ], [ 0, %.preheader ], [ %.1, %28 ], [ %.032, %.lr.ph ]
  ret i32 %.025
}